target datalayout = "e-m:e-p270:32:32-p271:32:32-p272:64:64-i64:64-i128:128-f80:128-n8:16:32:64-S128"
target triple = "x86_64-pc-linux-gnu"

; Function Attrs: mustprogress uwtable
define noundef ptr @_ZN7rocksdb13NewDBIteratorEPNS_3EnvERKNS_11ReadOptionsERKNS_16ImmutableOptionsERKNS_16MutableCFOptionsEPKNS_10ComparatorEPNS_20InternalIteratorBaseINS_5SliceEEEPKNS_7VersionERKmmPNS_12ReadCallbackEPNS_22ColumnFamilyHandleImplEb(ptr noundef %0, ptr noundef nonnull align 8 dereferenceable(168) %1, ptr noundef nonnull align 8 dereferenceable(849) %2, ptr noundef nonnull align 8 dereferenceable(608) %3, ptr noundef %4, ptr noundef %5, ptr noundef %6, ptr noundef nonnull align 8 dereferenceable(8) %7, i64 noundef %8, ptr noundef %9, ptr noundef %10, i1 noundef zeroext %11) #3 personality ptr @__gxx_personality_v0 {
  %13 = alloca ptr, align 8
  %14 = alloca ptr, align 8
  %15 = alloca ptr, align 8
  %16 = alloca ptr, align 8
  %17 = alloca ptr, align 8
  %18 = alloca ptr, align 8
  %19 = alloca ptr, align 8
  %20 = alloca ptr, align 8
  %21 = alloca i64, align 8
  %22 = alloca ptr, align 8
  %23 = alloca ptr, align 8
  %24 = alloca i8, align 1
  %25 = alloca ptr, align 8
  %26 = alloca ptr, align 8
  %27 = alloca i32, align 4
  store ptr %0, ptr %13, align 8, !tbaa !65
  store ptr %1, ptr %14, align 8, !tbaa !67
  store ptr %2, ptr %15, align 8, !tbaa !69
  store ptr %3, ptr %16, align 8, !tbaa !71
  store ptr %4, ptr %17, align 8, !tbaa !73
  store ptr %5, ptr %18, align 8, !tbaa !74
  store ptr %6, ptr %19, align 8, !tbaa !76
  store ptr %7, ptr %20, align 8, !tbaa !320
  store i64 %8, ptr %21, align 8, !tbaa !4
  store ptr %9, ptr %22, align 8, !tbaa !80
  store ptr %10, ptr %23, align 8, !tbaa !82
  %28 = zext i1 %11 to i8
  store i8 %28, ptr %24, align 1, !tbaa !78
  call void @llvm.lifetime.start.p0(i64 8, ptr %25) #6
  %29 = call noalias noundef nonnull ptr @_Znwm(i64 noundef 1112) #24
  %30 = load ptr, ptr %13, align 8, !tbaa !65
  %31 = load ptr, ptr %14, align 8, !tbaa !67
  %32 = load ptr, ptr %15, align 8, !tbaa !69
  %33 = load ptr, ptr %16, align 8, !tbaa !71
  %34 = load ptr, ptr %17, align 8, !tbaa !73
  %35 = load ptr, ptr %18, align 8, !tbaa !74
  %36 = load ptr, ptr %19, align 8, !tbaa !76
  %37 = load ptr, ptr %20, align 8, !tbaa !320
  %38 = load i64, ptr %37, align 8, !tbaa !4
  %39 = load i64, ptr %21, align 8, !tbaa !4
  %40 = load ptr, ptr %22, align 8, !tbaa !80
  %41 = load ptr, ptr %23, align 8, !tbaa !82
  %42 = load i8, ptr %24, align 1, !tbaa !78, !range !207, !noundef !208
  %43 = trunc i8 %42 to i1
  invoke void @_ZN7rocksdb6DBIterC1EPNS_3EnvERKNS_11ReadOptionsERKNS_16ImmutableOptionsERKNS_16MutableCFOptionsEPKNS_10ComparatorEPNS_20InternalIteratorBaseINS_5SliceEEEPKNS_7VersionEmbmPNS_12ReadCallbackEPNS_22ColumnFamilyHandleImplEb(ptr noundef nonnull align 8 dereferenceable(1112) %29, ptr noundef %30, ptr noundef nonnull align 8 dereferenceable(168) %31, ptr noundef nonnull align 8 dereferenceable(849) %32, ptr noundef nonnull align 8 dereferenceable(608) %33, ptr noundef %34, ptr noundef %35, ptr noundef %36, i64 noundef %38, i1 noundef zeroext false, i64 noundef %39, ptr noundef %40, ptr noundef %41, i1 noundef zeroext %43)
          to label %44 unwind label %46

44:                                               ; preds = %12
  store ptr %29, ptr %25, align 8, !tbaa !63
  %45 = load ptr, ptr %25, align 8, !tbaa !63
  call void @llvm.lifetime.end.p0(i64 8, ptr %25) #6
  ret ptr %45

46:                                               ; preds = %12
  %47 = landingpad { ptr, i32 }
          cleanup
  %48 = extractvalue { ptr, i32 } %47, 0
  store ptr %48, ptr %26, align 8
  %49 = extractvalue { ptr, i32 } %47, 1
  store i32 %49, ptr %27, align 4
  call void @_ZdlPvm(ptr noundef %29, i64 noundef 1112) #25
  call void @llvm.lifetime.end.p0(i64 8, ptr %25) #6
  br label %50

50:                                               ; preds = %46
  %51 = load ptr, ptr %26, align 8
  %52 = load i32, ptr %27, align 4
  %53 = insertvalue { ptr, i32 } poison, ptr %51, 0
  %54 = insertvalue { ptr, i32 } %53, i32 %52, 1
  resume { ptr, i32 } %54
}