; Function Attrs: mustprogress uwtable
define noundef nonnull ptr @_ZN7rocksdb13NewDBIteratorEPNS_3EnvERKNS_11ReadOptionsERKNS_16ImmutableOptionsERKNS_16MutableCFOptionsEPKNS_10ComparatorEPNS_20InternalIteratorBaseINS_5SliceEEEPKNS_7VersionERKmmPNS_12ReadCallbackEPNS_22ColumnFamilyHandleImplEb(ptr noundef %0, ptr noundef nonnull align 8 dereferenceable(168) %1, ptr noundef nonnull align 8 dereferenceable(849) %2, ptr noundef nonnull align 8 dereferenceable(608) %3, ptr noundef %4, ptr noundef %5, ptr noundef %6, ptr noundef nonnull readonly align 8 captures(none) dereferenceable(8) %7, i64 noundef %8, ptr noundef %9, ptr noundef %10, i1 noundef zeroext %11) local_unnamed_addr #6 personality ptr @__gxx_personality_v0 {
  %13 = tail call noalias noundef nonnull dereferenceable(1112) ptr @_Znwm(i64 noundef 1112) #29
  %14 = load i64, ptr %7, align 8, !tbaa !156
  invoke void @_ZN7rocksdb6DBIterC1EPNS_3EnvERKNS_11ReadOptionsERKNS_16ImmutableOptionsERKNS_16MutableCFOptionsEPKNS_10ComparatorEPNS_20InternalIteratorBaseINS_5SliceEEEPKNS_7VersionEmbmPNS_12ReadCallbackEPNS_22ColumnFamilyHandleImplEb(ptr noundef nonnull align 8 dereferenceable(1112) %13, ptr noundef %0, ptr noundef nonnull align 8 dereferenceable(168) %1, ptr noundef nonnull align 8 dereferenceable(849) %2, ptr noundef nonnull align 8 dereferenceable(608) %3, ptr noundef %4, ptr noundef %5, ptr noundef %6, i64 noundef %14, i1 noundef zeroext false, i64 noundef %8, ptr noundef %9, ptr noundef %10, i1 noundef zeroext %11)
          to label %15 unwind label %16

15:                                               ; preds = %12
  ret ptr %13

16:                                               ; preds = %12
  %17 = landingpad { ptr, i32 }
          cleanup
  tail call void @_ZdlPvm(ptr noundef nonnull %13, i64 noundef 1112) #24
  resume { ptr, i32 } %17
}